target datalayout = "e-m:e-p270:32:32-p271:32:32-p272:64:64-i64:64-i128:128-f80:128-n8:16:32:64-S128"
target triple = "x86_64-pc-linux-gnu"

%struct.CodecTags = type { [22 x i8], i32 }

@ff_mkv_codec_tags = external constant [0 x %struct.CodecTags], align 4

; Function Attrs: nounwind uwtable
define internal i32 @mkv_query_codec(i32 noundef %0, i32 noundef %1) #0 {
  %3 = alloca i32, align 4
  %4 = alloca i32, align 4
  %5 = alloca i32, align 4
  %6 = alloca i32, align 4
  %7 = alloca i32, align 4
  %8 = alloca i32, align 4
  store i32 %0, ptr %4, align 4, !tbaa !30
  store i32 %1, ptr %5, align 4, !tbaa !30
  call void @llvm.lifetime.start.p0(i64 4, ptr %6) #16
  store i32 0, ptr %6, align 4, !tbaa !30
  br label %9

9:                                                ; preds = %27, %2
  %10 = load i32, ptr %6, align 4, !tbaa !30
  %11 = sext i32 %10 to i64
  %12 = getelementptr inbounds [0 x %struct.CodecTags], ptr @ff_mkv_codec_tags, i64 0, i64 %11
  %13 = getelementptr inbounds nuw %struct.CodecTags, ptr %12, i32 0, i32 1
  %14 = load i32, ptr %13, align 4, !tbaa !102
  %15 = icmp ne i32 %14, 0
  br i1 %15, label %17, label %16

16:                                               ; preds = %9
  store i32 2, ptr %7, align 4
  br label %30

17:                                               ; preds = %9
  %18 = load i32, ptr %6, align 4, !tbaa !30
  %19 = sext i32 %18 to i64
  %20 = getelementptr inbounds [0 x %struct.CodecTags], ptr @ff_mkv_codec_tags, i64 0, i64 %19
  %21 = getelementptr inbounds nuw %struct.CodecTags, ptr %20, i32 0, i32 1
  %22 = load i32, ptr %21, align 4, !tbaa !102
  %23 = load i32, ptr %4, align 4, !tbaa !30
  %24 = icmp eq i32 %22, %23
  br i1 %24, label %25, label %26

25:                                               ; preds = %17
  store i32 1, ptr %3, align 4
  store i32 1, ptr %7, align 4
  br label %30

26:                                               ; preds = %17
  br label %27

27:                                               ; preds = %26
  %28 = load i32, ptr %6, align 4, !tbaa !30
  %29 = add nsw i32 %28, 1
  store i32 %29, ptr %6, align 4, !tbaa !30
  br label %9, !llvm.loop !104

30:                                               ; preds = %25, %16
  call void @llvm.lifetime.end.p0(i64 4, ptr %6) #16
  %31 = load i32, ptr %7, align 4
  switch i32 %31, label %51 [
    i32 2, label %32
    i32 1, label %49
  ]

32:                                               ; preds = %30
  %33 = load i32, ptr %5, align 4, !tbaa !30
  %34 = icmp slt i32 %33, 0
  br i1 %34, label %35, label %48

35:                                               ; preds = %32
  call void @llvm.lifetime.start.p0(i64 4, ptr %8) #16
  %36 = load i32, ptr %4, align 4, !tbaa !30
  %37 = call i32 @avcodec_get_type(i32 noundef %36)
  store i32 %37, ptr %8, align 4, !tbaa !30
  %38 = load i32, ptr %8, align 4, !tbaa !30
  %39 = icmp eq i32 %38, 0
  br i1 %39, label %43, label %40

40:                                               ; preds = %35
  %41 = load i32, ptr %8, align 4, !tbaa !30
  %42 = icmp eq i32 %41, 1
  br i1 %42, label %43, label %44

43:                                               ; preds = %40, %35
  store i32 1, ptr %3, align 4
  store i32 1, ptr %7, align 4
  br label %45

44:                                               ; preds = %40
  store i32 0, ptr %7, align 4
  br label %45

45:                                               ; preds = %44, %43
  call void @llvm.lifetime.end.p0(i64 4, ptr %8) #16
  %46 = load i32, ptr %7, align 4
  switch i32 %46, label %51 [
    i32 0, label %47
    i32 1, label %49
  ]

47:                                               ; preds = %45
  br label %48

48:                                               ; preds = %47, %32
  store i32 0, ptr %3, align 4
  br label %49

49:                                               ; preds = %48, %45, %30
  %50 = load i32, ptr %3, align 4
  ret i32 %50

51:                                               ; preds = %45, %30
  unreachable
}