; Function Attrs: nounwind uwtable
define internal range(i32 0, 2) i32 @mkv_query_codec(i32 noundef %0, i32 noundef %1) #0 {
  %3 = load i32, ptr getelementptr inbounds nuw (i8, ptr @ff_mkv_codec_tags, i64 24), align 4, !tbaa !99
  %.not19 = icmp eq i32 %3, 0
  br i1 %.not19, label %._crit_edge, label %.lr.ph

4:                                                ; preds = %.lr.ph
  %indvars.iv.next = add nuw nsw i64 %indvars.iv, 1
  %5 = getelementptr inbounds nuw [0 x %struct.CodecTags], ptr @ff_mkv_codec_tags, i64 0, i64 %indvars.iv.next, i32 1
  %6 = load i32, ptr %5, align 4, !tbaa !99
  %.not = icmp eq i32 %6, 0
  br i1 %.not, label %._crit_edge, label %.lr.ph, !llvm.loop !234

.lr.ph:                                           ; preds = %2, %4
  %indvars.iv = phi i64 [ %indvars.iv.next, %4 ], [ 0, %2 ]
  %7 = phi i32 [ %6, %4 ], [ %3, %2 ]
  %8 = icmp eq i32 %7, %0
  br i1 %8, label %.loopexit, label %4

._crit_edge:                                      ; preds = %4, %2
  %9 = icmp slt i32 %1, 0
  br i1 %9, label %10, label %12

10:                                               ; preds = %._crit_edge
  %11 = tail call i32 @avcodec_get_type(i32 noundef %0) #14
  %or.cond = icmp ugt i32 %11, 1
  br i1 %or.cond, label %12, label %.loopexit

12:                                               ; preds = %10, %._crit_edge
  br label %.loopexit

.loopexit:                                        ; preds = %.lr.ph, %10, %12
  %.1 = phi i32 [ 1, %10 ], [ 0, %12 ], [ 1, %.lr.ph ]
  ret i32 %.1
}